target datalayout = "e-m:e-p270:32:32-p271:32:32-p272:64:64-i64:64-i128:128-f80:128-n8:16:32:64-S128"
target triple = "x86_64-pc-linux-gnu"

%struct.cgroup_conf_t = type { ptr, ptr, i8, i8, float, float, i64, i8, float, float, i64, i8, ptr, i8, i8, i8, i8, i64 }
%struct.stat = type { i64, i64, i64, i32, i32, i32, i32, i64, i64, i64, i64, %struct.timespec, %struct.timespec, %struct.timespec, [3 x i64] }
%struct.timespec = type { i64, i64 }

@cgroup_p_has_feature.swap_enabled = internal global i32 -1, align 4
@.str.80 = private unnamed_addr constant [38 x i8] c"%s/memory/memory.memsw.limit_in_bytes\00", align 1
@slurm_cgroup_conf = external global %struct.cgroup_conf_t, align 8

; Function Attrs: nounwind uwtable
define dso_local zeroext i1 @cgroup_p_has_feature(i32 noundef %0) #0 {
  %2 = alloca i1, align 1
  %3 = alloca i32, align 4
  %4 = alloca %struct.stat, align 8
  %5 = alloca i32, align 4
  %6 = alloca ptr, align 8
  %7 = alloca i32, align 4
  store i32 %0, ptr %3, align 4
  call void @llvm.lifetime.start.p0(i64 144, ptr %4) #7
  call void @llvm.lifetime.start.p0(i64 4, ptr %5) #7
  call void @llvm.lifetime.start.p0(i64 8, ptr %6) #7
  store ptr null, ptr %6, align 8
  %8 = load i32, ptr %3, align 4
  switch i32 %8, label %22 [
    i32 3, label %9
  ]

9:                                                ; preds = %1
  %10 = load i32, ptr @cgroup_p_has_feature.swap_enabled, align 4
  %11 = icmp eq i32 %10, -1
  br i1 %11, label %12, label %19

12:                                               ; preds = %9
  %13 = load ptr, ptr @slurm_cgroup_conf, align 8
  call void (ptr, ptr, ...) @_xstrfmtcat(ptr noundef %6, ptr noundef @.str.80, ptr noundef %13)
  %14 = load ptr, ptr %6, align 8
  %15 = call i32 @stat(ptr noundef %14, ptr noundef %4) #7
  store i32 %15, ptr %5, align 4
  call void @slurm_xfree(ptr noundef %6)
  %16 = load i32, ptr %5, align 4
  %17 = icmp eq i32 %16, 0
  %18 = zext i1 %17 to i32
  store i32 %18, ptr @cgroup_p_has_feature.swap_enabled, align 4
  store i1 %17, ptr %2, align 1
  store i32 1, ptr %7, align 4
  br label %24

19:                                               ; preds = %9
  %20 = load i32, ptr @cgroup_p_has_feature.swap_enabled, align 4
  %21 = icmp ne i32 %20, 0
  store i1 %21, ptr %2, align 1
  store i32 1, ptr %7, align 4
  br label %24

22:                                               ; preds = %1
  br label %23

23:                                               ; preds = %22
  store i1 false, ptr %2, align 1
  store i32 1, ptr %7, align 4
  br label %24

24:                                               ; preds = %23, %19, %12
  call void @llvm.lifetime.end.p0(i64 8, ptr %6) #7
  call void @llvm.lifetime.end.p0(i64 4, ptr %5) #7
  call void @llvm.lifetime.end.p0(i64 144, ptr %4) #7
  %25 = load i1, ptr %2, align 1
  ret i1 %25
}