; Function Attrs: nounwind uwtable
define dso_local zeroext i1 @cgroup_p_has_feature(i32 noundef %0) local_unnamed_addr #0 {
  %2 = alloca %struct.stat, align 8
  %3 = alloca ptr, align 8
  call void @llvm.lifetime.start.p0(i64 144, ptr nonnull %2) #11
  call void @llvm.lifetime.start.p0(i64 8, ptr nonnull %3) #11
  store ptr null, ptr %3, align 8
  %cond = icmp eq i32 %0, 3
  br i1 %cond, label %4, label %15

4:                                                ; preds = %1
  %5 = load i32, ptr @cgroup_p_has_feature.swap_enabled, align 4
  %6 = icmp eq i32 %5, -1
  br i1 %6, label %7, label %13

7:                                                ; preds = %4
  %8 = load ptr, ptr @slurm_cgroup_conf, align 8
  call void (ptr, ptr, ...) @_xstrfmtcat(ptr noundef nonnull %3, ptr noundef nonnull @.str.80, ptr noundef %8) #11
  %9 = load ptr, ptr %3, align 8
  %10 = call i32 @stat(ptr noundef %9, ptr noundef nonnull %2) #11
  call void @slurm_xfree(ptr noundef nonnull %3) #11
  %11 = icmp eq i32 %10, 0
  %12 = zext i1 %11 to i32
  store i32 %12, ptr @cgroup_p_has_feature.swap_enabled, align 4
  br label %15

13:                                               ; preds = %4
  %14 = icmp ne i32 %5, 0
  br label %15

15:                                               ; preds = %1, %13, %7
  %.0 = phi i1 [ %11, %7 ], [ %14, %13 ], [ false, %1 ]
  call void @llvm.lifetime.end.p0(i64 8, ptr nonnull %3) #11
  call void @llvm.lifetime.end.p0(i64 144, ptr nonnull %2) #11
  ret i1 %.0
}